; Function Attrs: mustprogress nofree nounwind sspstrong willreturn memory(write) uwtable
define hidden double @FLAC__lpc_compute_expected_bits_per_residual_sample_with_error_scale(double noundef %0, double noundef %1) local_unnamed_addr #8 {
  %3 = fcmp reassoc nsz arcp ogt double %0, 0.000000e+00
  br i1 %3, label %4, label %8

4:                                                ; preds = %2
  %5 = fmul reassoc nsz arcp double %1, %0
  %6 = tail call reassoc nsz arcp double @log(double noundef %5) #13, !tbaa !3
  %7 = fmul reassoc nsz arcp double %6, 0x3FE71547652B82FE
  %.inv = fcmp reassoc nsz arcp oge double %7, 0.000000e+00
  %. = select reassoc nsz arcp i1 %.inv, double %7, double 0.000000e+00
  br label %10

8:                                                ; preds = %2
  %9 = fcmp reassoc nsz arcp olt double %0, 0.000000e+00
  %.10 = select nsz i1 %9, double 1.000000e+32, double 0.000000e+00
  br label %10

10:                                               ; preds = %8, %4
  %.1 = phi nsz double [ %., %4 ], [ %.10, %8 ]
  ret double %.1
}